target datalayout = "e-m:e-p270:32:32-p271:32:32-p272:64:64-i64:64-i128:128-f80:128-n8:16:32:64-S128"
target triple = "x86_64-pc-linux-gnu"

%struct.FFEBUR128State = type { i32, i32, i64, ptr }
%struct.FFEBUR128StateInternal = type { ptr, i64, i64, i64, ptr, i64, [5 x double], [5 x double], [5 x [5 x double]], ptr, ptr, i64, ptr, i64, ptr }

; Function Attrs: nounwind uwtable
define i32 @ff_ebur128_sample_peak(ptr noundef %0, i32 noundef %1, ptr noundef %2) #0 {
  %4 = alloca i32, align 4
  %5 = alloca ptr, align 8
  %6 = alloca i32, align 4
  %7 = alloca ptr, align 8
  store ptr %0, ptr %5, align 8, !tbaa !10
  store i32 %1, ptr %6, align 4, !tbaa !4
  store ptr %2, ptr %7, align 8, !tbaa !46
  %8 = load ptr, ptr %5, align 8, !tbaa !10
  %9 = getelementptr inbounds nuw %struct.FFEBUR128State, ptr %8, i32 0, i32 0
  %10 = load i32, ptr %9, align 8, !tbaa !25
  %11 = and i32 %10, 17
  %12 = icmp ne i32 %11, 17
  br i1 %12, label %13, label %14

13:                                               ; preds = %3
  store i32 -22, ptr %4, align 4
  br label %33

14:                                               ; preds = %3
  %15 = load i32, ptr %6, align 4, !tbaa !4
  %16 = load ptr, ptr %5, align 8, !tbaa !10
  %17 = getelementptr inbounds nuw %struct.FFEBUR128State, ptr %16, i32 0, i32 1
  %18 = load i32, ptr %17, align 4, !tbaa !16
  %19 = icmp uge i32 %15, %18
  br i1 %19, label %20, label %21

20:                                               ; preds = %14
  store i32 -22, ptr %4, align 4
  br label %33

21:                                               ; preds = %14
  br label %22

22:                                               ; preds = %21
  %23 = load ptr, ptr %5, align 8, !tbaa !10
  %24 = getelementptr inbounds nuw %struct.FFEBUR128State, ptr %23, i32 0, i32 3
  %25 = load ptr, ptr %24, align 8, !tbaa !13
  %26 = getelementptr inbounds nuw %struct.FFEBUR128StateInternal, ptr %25, i32 0, i32 12
  %27 = load ptr, ptr %26, align 8, !tbaa !17
  %28 = load i32, ptr %6, align 4, !tbaa !4
  %29 = zext i32 %28 to i64
  %30 = getelementptr inbounds nuw double, ptr %27, i64 %29
  %31 = load double, ptr %30, align 8, !tbaa !38
  %32 = load ptr, ptr %7, align 8, !tbaa !46
  store double %31, ptr %32, align 8, !tbaa !38
  store i32 0, ptr %4, align 4
  br label %33

33:                                               ; preds = %22, %20, %13
  %34 = load i32, ptr %4, align 4
  ret i32 %34
}