; Function Attrs: mustprogress nofree norecurse nosync nounwind willreturn memory(read, argmem: readwrite, inaccessiblemem: none) uwtable
define range(i32 -22, 1) i32 @ff_ebur128_sample_peak(ptr noundef readonly captures(none) %0, i32 noundef %1, ptr noundef writeonly captures(none) %2) local_unnamed_addr #9 {
  %4 = load i32, ptr %0, align 8, !tbaa !25
  %5 = and i32 %4, 17
  %.not = icmp eq i32 %5, 17
  br i1 %.not, label %6, label %17

6:                                                ; preds = %3
  %7 = getelementptr inbounds nuw i8, ptr %0, i64 4
  %8 = load i32, ptr %7, align 4, !tbaa !12
  %.not7 = icmp ult i32 %1, %8
  br i1 %.not7, label %9, label %17

9:                                                ; preds = %6
  %10 = getelementptr inbounds nuw i8, ptr %0, i64 16
  %11 = load ptr, ptr %10, align 8, !tbaa !4
  %12 = getelementptr inbounds nuw i8, ptr %11, i64 352
  %13 = load ptr, ptr %12, align 8, !tbaa !22
  %14 = zext i32 %1 to i64
  %15 = getelementptr inbounds nuw double, ptr %13, i64 %14
  %16 = load double, ptr %15, align 8, !tbaa !29
  store double %16, ptr %2, align 8, !tbaa !29
  br label %17

17:                                               ; preds = %6, %3, %9
  %.0 = phi i32 [ 0, %9 ], [ -22, %3 ], [ -22, %6 ]
  ret i32 %.0
}